; Function Attrs: mustprogress nofree norecurse nosync nounwind willreturn memory(read, inaccessiblemem: none) uwtable
define { i64, i64 } @_ZNK32pxrInternal_v0_24__pxrReserved__18PcpPrimIndex_Graph29GetNodeIndexesForSubtreeRangeERKNS_10PcpNodeRefE(ptr noundef nonnull readonly align 8 dereferenceable(57) %0, ptr nocapture noundef nonnull readonly align 8 dereferenceable(16) %1) local_unnamed_addr #9 align 2 {
  %3 = load ptr, ptr %1, align 8
  %.not = icmp eq ptr %3, %0
  br i1 %.not, label %14, label %4

4:                                                ; preds = %2
  %5 = getelementptr inbounds nuw i8, ptr %0, i64 16
  %6 = load ptr, ptr %5, align 8
  %7 = getelementptr inbounds nuw i8, ptr %6, i64 8
  %8 = load ptr, ptr %7, align 8
  %9 = load ptr, ptr %6, align 8
  %10 = ptrtoint ptr %8 to i64
  %11 = ptrtoint ptr %9 to i64
  %12 = sub i64 %10, %11
  %13 = sdiv exact i64 %12, 48
  br label %27

14:                                               ; preds = %2
  %15 = getelementptr inbounds nuw i8, ptr %1, i64 8
  %16 = load i64, ptr %15, align 8
  %17 = getelementptr inbounds nuw i8, ptr %0, i64 16
  %18 = load ptr, ptr %17, align 8
  %19 = load ptr, ptr %18, align 8
  br label %20

20:                                               ; preds = %20, %14
  %.0 = phi i64 [ %16, %14 ], [ %24, %20 ]
  %21 = getelementptr inbounds %"struct.pxrInternal_v0_24__pxrReserved__::PcpPrimIndex_Graph::_Node", ptr %19, i64 %.0, i32 3, i32 3
  %22 = load i16, ptr %21, align 2
  %23 = icmp eq i16 %22, -1
  %24 = zext i16 %22 to i64
  br i1 %23, label %25, label %20, !llvm.loop !22

25:                                               ; preds = %20
  %26 = add i64 %.0, 1
  br label %27

27:                                               ; preds = %25, %4
  %.pn16 = phi i64 [ %13, %4 ], [ %16, %25 ]
  %.pn14 = phi i64 [ %13, %4 ], [ %26, %25 ]
  %.fca.0.insert.i.pn = insertvalue { i64, i64 } poison, i64 %.pn16, 0
  %.pn = insertvalue { i64, i64 } %.fca.0.insert.i.pn, i64 %.pn14, 1
  ret { i64, i64 } %.pn
}